target datalayout = "e-m:e-p270:32:32-p271:32:32-p272:64:64-i64:64-i128:128-f80:128-n8:16:32:64-S128"
target triple = "x86_64-pc-linux-gnu"

%class.btVector3 = type { [4 x float] }
%class.btSoftRigidDynamicsWorld = type <{ %class.btDiscreteDynamicsWorld.base, [4 x i8], %class.btAlignedObjectArray.8, i32, i8, i8, i8, i8, %struct.btSoftBodyWorldInfo, ptr, i8, [7 x i8] }>
%class.btDiscreteDynamicsWorld.base = type <{ %class.btDynamicsWorld, %class.btAlignedObjectArray.0, ptr, ptr, ptr, %class.btAlignedObjectArray.0, %class.btAlignedObjectArray.2, %class.btVector3, float, float, i8, i8, i8, i8, [4 x i8], %class.btAlignedObjectArray.4, i32, i8, [3 x i8], %class.btAlignedObjectArray.6, %class.btSpinMutex }>
%class.btDynamicsWorld = type { %class.btCollisionWorld.base, ptr, ptr, ptr, %struct.btContactSolverInfo }
%class.btCollisionWorld.base = type <{ ptr, %class.btAlignedObjectArray, ptr, %struct.btDispatcherInfo, ptr, ptr, i8 }>
%class.btAlignedObjectArray = type <{ [4 x i8], i32, i32, [4 x i8], ptr, i8, [7 x i8] }>
%struct.btDispatcherInfo = type <{ float, i32, i32, float, i8, [7 x i8], ptr, i8, i8, i8, i8, float, i8, [3 x i8], float, i8, [7 x i8] }>
%struct.btContactSolverInfo = type { %struct.btContactSolverInfoData }
%struct.btContactSolverInfoData = type { float, float, float, float, float, i32, float, float, float, float, float, float, float, float, float, float, i32, float, float, float, float, float, i32, i32, i32, float, float, float, float, i8, i8, i32, i32 }
%class.btAlignedObjectArray.0 = type <{ [4 x i8], i32, i32, [4 x i8], ptr, i8, [7 x i8] }>
%class.btAlignedObjectArray.2 = type <{ [4 x i8], i32, i32, [4 x i8], ptr, i8, [7 x i8] }>
%class.btAlignedObjectArray.4 = type <{ [4 x i8], i32, i32, [4 x i8], ptr, i8, [7 x i8] }>
%class.btAlignedObjectArray.6 = type <{ [4 x i8], i32, i32, [4 x i8], ptr, i8, [7 x i8] }>
%class.btSpinMutex = type { i32 }
%class.btAlignedObjectArray.8 = type <{ [4 x i8], i32, i32, [4 x i8], ptr, i8, [7 x i8] }>
%struct.btSoftBodyWorldInfo = type { float, float, float, float, %class.btVector3, ptr, ptr, %class.btVector3, %struct.btSparseSdf }
%struct.btSparseSdf = type { %class.btAlignedObjectArray.10, float, float, i32, i32, i32, i32, i32, [4 x i8] }
%class.btAlignedObjectArray.10 = type <{ [4 x i8], i32, i32, [4 x i8], ptr, i8, [7 x i8] }>
%class.btTransform = type { %class.btMatrix3x3, %class.btVector3 }
%class.btMatrix3x3 = type { [3 x %class.btVector3] }
%class.btAlignedObjectArray.12 = type <{ [4 x i8], i32, i32, [4 x i8], ptr, i8, [7 x i8] }>
%class.btCollisionObject = type <{ ptr, %class.btTransform, %class.btTransform, %class.btVector3, %class.btVector3, %class.btVector3, i32, float, ptr, ptr, ptr, ptr, i32, i32, i32, i32, i32, float, float, float, float, float, float, float, i32, [4 x i8], ptr, i32, i32, i32, float, float, float, i32, [4 x i8], %class.btAlignedObjectArray.12, i32, %class.btVector3, [4 x i8] }>

; Function Attrs: inlinehint mustprogress nounwind uwtable
define linkonce_odr dso_local void @_ZN20btAlignedObjectArrayIP10btSoftBodyE8pop_backEv(ptr noundef nonnull align 8 dereferenceable(25) %0) #5 comdat align 2 {
  %2 = alloca ptr, align 8
  store ptr %0, ptr %2, align 8, !tbaa !77
  %3 = load ptr, ptr %2, align 8
  %4 = getelementptr inbounds nuw %class.btAlignedObjectArray.8, ptr %3, i32 0, i32 1
  %5 = load i32, ptr %4, align 4, !tbaa !113
  %6 = add nsw i32 %5, -1
  store i32 %6, ptr %4, align 4, !tbaa !113
  ret void
}

; Function Attrs: mustprogress nounwind uwtable
define linkonce_odr dso_local void @_ZN20btAlignedObjectArrayIP10btSoftBodyE4swapEii(ptr noundef nonnull align 8 dereferenceable(25) %0, i32 noundef %1, i32 noundef %2) #1 comdat align 2 {
  %4 = alloca ptr, align 8
  %5 = alloca i32, align 4
  %6 = alloca i32, align 4
  %7 = alloca ptr, align 8
  store ptr %0, ptr %4, align 8, !tbaa !77
  store i32 %1, ptr %5, align 4, !tbaa !9
  store i32 %2, ptr %6, align 4, !tbaa !9
  %8 = load ptr, ptr %4, align 8
  call void @llvm.lifetime.start.p0(i64 8, ptr %7) #14
  %9 = getelementptr inbounds nuw %class.btAlignedObjectArray.8, ptr %8, i32 0, i32 4
  %10 = load ptr, ptr %9, align 8, !tbaa !114
  %11 = load i32, ptr %5, align 4, !tbaa !9
  %12 = sext i32 %11 to i64
  %13 = getelementptr inbounds ptr, ptr %10, i64 %12
  %14 = load ptr, ptr %13, align 8, !tbaa !110
  store ptr %14, ptr %7, align 8, !tbaa !110
  %15 = getelementptr inbounds nuw %class.btAlignedObjectArray.8, ptr %8, i32 0, i32 4
  %16 = load ptr, ptr %15, align 8, !tbaa !114
  %17 = load i32, ptr %6, align 4, !tbaa !9
  %18 = sext i32 %17 to i64
  %19 = getelementptr inbounds ptr, ptr %16, i64 %18
  %20 = load ptr, ptr %19, align 8, !tbaa !110
  %21 = getelementptr inbounds nuw %class.btAlignedObjectArray.8, ptr %8, i32 0, i32 4
  %22 = load ptr, ptr %21, align 8, !tbaa !114
  %23 = load i32, ptr %5, align 4, !tbaa !9
  %24 = sext i32 %23 to i64
  %25 = getelementptr inbounds ptr, ptr %22, i64 %24
  store ptr %20, ptr %25, align 8, !tbaa !110
  %26 = load ptr, ptr %7, align 8, !tbaa !110
  %27 = getelementptr inbounds nuw %class.btAlignedObjectArray.8, ptr %8, i32 0, i32 4
  %28 = load ptr, ptr %27, align 8, !tbaa !114
  %29 = load i32, ptr %6, align 4, !tbaa !9
  %30 = sext i32 %29 to i64
  %31 = getelementptr inbounds ptr, ptr %28, i64 %30
  store ptr %26, ptr %31, align 8, !tbaa !110
  call void @llvm.lifetime.end.p0(i64 8, ptr %7) #14
  ret void
}

; Function Attrs: inlinehint mustprogress nounwind uwtable
define linkonce_odr dso_local noundef i32 @_ZNK20btAlignedObjectArrayIP10btSoftBodyE4sizeEv(ptr noundef nonnull align 8 dereferenceable(25) %0) #5 comdat align 2 {
  %2 = alloca ptr, align 8
  store ptr %0, ptr %2, align 8, !tbaa !77
  %3 = load ptr, ptr %2, align 8
  %4 = getelementptr inbounds nuw %class.btAlignedObjectArray.8, ptr %3, i32 0, i32 1
  %5 = load i32, ptr %4, align 4, !tbaa !113
  ret i32 %5
}

; Function Attrs: mustprogress uwtable
define linkonce_odr dso_local void @_ZN20btAlignedObjectArrayIP10btSoftBodyE13removeAtIndexEi(ptr noundef nonnull align 8 dereferenceable(25) %0, i32 noundef %1) #2 comdat align 2 {
  %3 = alloca ptr, align 8
  %4 = alloca i32, align 4
  store ptr %0, ptr %3, align 8, !tbaa !77
  store i32 %1, ptr %4, align 4, !tbaa !9
  %5 = load ptr, ptr %3, align 8
  %6 = load i32, ptr %4, align 4, !tbaa !9
  %7 = call noundef i32 @_ZNK20btAlignedObjectArrayIP10btSoftBodyE4sizeEv(ptr noundef nonnull align 8 dereferenceable(25) %5)
  %8 = icmp slt i32 %6, %7
  br i1 %8, label %9, label %13

9:                                                ; preds = %2
  %10 = load i32, ptr %4, align 4, !tbaa !9
  %11 = call noundef i32 @_ZNK20btAlignedObjectArrayIP10btSoftBodyE4sizeEv(ptr noundef nonnull align 8 dereferenceable(25) %5)
  %12 = sub nsw i32 %11, 1
  call void @_ZN20btAlignedObjectArrayIP10btSoftBodyE4swapEii(ptr noundef nonnull align 8 dereferenceable(25) %5, i32 noundef %10, i32 noundef %12)
  call void @_ZN20btAlignedObjectArrayIP10btSoftBodyE8pop_backEv(ptr noundef nonnull align 8 dereferenceable(25) %5)
  br label %13

13:                                               ; preds = %9, %2
  ret void
}

; Function Attrs: mustprogress nounwind uwtable
define linkonce_odr dso_local noundef i32 @_ZNK20btAlignedObjectArrayIP10btSoftBodyE16findLinearSearchERKS1_(ptr noundef nonnull align 8 dereferenceable(25) %0, ptr noundef nonnull align 8 dereferenceable(8) %1) #1 comdat align 2 {
  %3 = alloca ptr, align 8
  %4 = alloca ptr, align 8
  %5 = alloca i32, align 4
  %6 = alloca i32, align 4
  store ptr %0, ptr %3, align 8, !tbaa !77
  store ptr %1, ptr %4, align 8, !tbaa !117
  %7 = load ptr, ptr %3, align 8
  call void @llvm.lifetime.start.p0(i64 4, ptr %5) #14
  %8 = call noundef i32 @_ZNK20btAlignedObjectArrayIP10btSoftBodyE4sizeEv(ptr noundef nonnull align 8 dereferenceable(25) %7)
  store i32 %8, ptr %5, align 4, !tbaa !9
  call void @llvm.lifetime.start.p0(i64 4, ptr %6) #14
  store i32 0, ptr %6, align 4, !tbaa !9
  br label %9

9:                                                ; preds = %26, %2
  %10 = load i32, ptr %6, align 4, !tbaa !9
  %11 = call noundef i32 @_ZNK20btAlignedObjectArrayIP10btSoftBodyE4sizeEv(ptr noundef nonnull align 8 dereferenceable(25) %7)
  %12 = icmp slt i32 %10, %11
  br i1 %12, label %13, label %29

13:                                               ; preds = %9
  %14 = getelementptr inbounds nuw %class.btAlignedObjectArray.8, ptr %7, i32 0, i32 4
  %15 = load ptr, ptr %14, align 8, !tbaa !114
  %16 = load i32, ptr %6, align 4, !tbaa !9
  %17 = sext i32 %16 to i64
  %18 = getelementptr inbounds ptr, ptr %15, i64 %17
  %19 = load ptr, ptr %18, align 8, !tbaa !110
  %20 = load ptr, ptr %4, align 8, !tbaa !117
  %21 = load ptr, ptr %20, align 8, !tbaa !110
  %22 = icmp eq ptr %19, %21
  br i1 %22, label %23, label %25

23:                                               ; preds = %13
  %24 = load i32, ptr %6, align 4, !tbaa !9
  store i32 %24, ptr %5, align 4, !tbaa !9
  br label %29

25:                                               ; preds = %13
  br label %26

26:                                               ; preds = %25
  %27 = load i32, ptr %6, align 4, !tbaa !9
  %28 = add nsw i32 %27, 1
  store i32 %28, ptr %6, align 4, !tbaa !9
  br label %9, !llvm.loop !305

29:                                               ; preds = %23, %9
  %30 = load i32, ptr %5, align 4, !tbaa !9
  call void @llvm.lifetime.end.p0(i64 4, ptr %6) #14
  call void @llvm.lifetime.end.p0(i64 4, ptr %5) #14
  ret i32 %30
}

; Function Attrs: mustprogress uwtable
define linkonce_odr dso_local void @_ZN20btAlignedObjectArrayIP10btSoftBodyE6removeERKS1_(ptr noundef nonnull align 8 dereferenceable(25) %0, ptr noundef nonnull align 8 dereferenceable(8) %1) #2 comdat align 2 {
  %3 = alloca ptr, align 8
  %4 = alloca ptr, align 8
  %5 = alloca i32, align 4
  store ptr %0, ptr %3, align 8, !tbaa !77
  store ptr %1, ptr %4, align 8, !tbaa !117
  %6 = load ptr, ptr %3, align 8
  call void @llvm.lifetime.start.p0(i64 4, ptr %5) #14
  %7 = load ptr, ptr %4, align 8, !tbaa !117
  %8 = call noundef i32 @_ZNK20btAlignedObjectArrayIP10btSoftBodyE16findLinearSearchERKS1_(ptr noundef nonnull align 8 dereferenceable(25) %6, ptr noundef nonnull align 8 dereferenceable(8) %7)
  store i32 %8, ptr %5, align 4, !tbaa !9
  %9 = load i32, ptr %5, align 4, !tbaa !9
  call void @_ZN20btAlignedObjectArrayIP10btSoftBodyE13removeAtIndexEi(ptr noundef nonnull align 8 dereferenceable(25) %6, i32 noundef %9)
  call void @llvm.lifetime.end.p0(i64 4, ptr %5) #14
  ret void
}

; Function Attrs: mustprogress nounwind uwtable
define linkonce_odr dso_local noundef i32 @_ZNK17btCollisionObject15getInternalTypeEv(ptr noundef nonnull align 8 dereferenceable(372) %0) #1 comdat align 2 {
  %2 = alloca ptr, align 8
  store ptr %0, ptr %2, align 8, !tbaa !210
  %3 = load ptr, ptr %2, align 8
  %4 = getelementptr inbounds nuw %class.btCollisionObject, ptr %3, i32 0, i32 24
  %5 = load i32, ptr %4, align 8, !tbaa !264
  ret i32 %5
}

; Function Attrs: mustprogress uwtable
define dso_local void @_ZN24btSoftRigidDynamicsWorld14removeSoftBodyEP10btSoftBody(ptr noundef nonnull align 8 dereferenceable(689) %0, ptr noundef %1) #2 align 2 {
  %3 = alloca ptr, align 8
  %4 = alloca ptr, align 8
  store ptr %0, ptr %3, align 8, !tbaa !12
  store ptr %1, ptr %4, align 8, !tbaa !110
  %5 = load ptr, ptr %3, align 8
  %6 = getelementptr inbounds nuw %class.btSoftRigidDynamicsWorld, ptr %5, i32 0, i32 2
  call void @_ZN20btAlignedObjectArrayIP10btSoftBodyE6removeERKS1_(ptr noundef nonnull align 8 dereferenceable(25) %6, ptr noundef nonnull align 8 dereferenceable(8) %4)
  %7 = load ptr, ptr %4, align 8, !tbaa !110
  call void @_ZN16btCollisionWorld21removeCollisionObjectEP17btCollisionObject(ptr noundef nonnull align 8 dereferenceable(121) %5, ptr noundef %7)
  ret void
}

; Function Attrs: mustprogress uwtable
define linkonce_odr dso_local noundef ptr @_ZN10btSoftBody6upcastEP17btCollisionObject(ptr noundef %0) #2 comdat align 2 {
  %2 = alloca ptr, align 8
  %3 = alloca ptr, align 8
  store ptr %0, ptr %3, align 8, !tbaa !210
  %4 = load ptr, ptr %3, align 8, !tbaa !210
  %5 = call noundef i32 @_ZNK17btCollisionObject15getInternalTypeEv(ptr noundef nonnull align 8 dereferenceable(372) %4)
  %6 = icmp eq i32 %5, 8
  br i1 %6, label %7, label %9

7:                                                ; preds = %1
  %8 = load ptr, ptr %3, align 8, !tbaa !210
  store ptr %8, ptr %2, align 8
  br label %10

9:                                                ; preds = %1
  store ptr null, ptr %2, align 8
  br label %10

10:                                               ; preds = %9, %7
  %11 = load ptr, ptr %2, align 8
  ret ptr %11
}

; Function Attrs: mustprogress uwtable
define dso_local void @_ZN24btSoftRigidDynamicsWorld21removeCollisionObjectEP17btCollisionObject(ptr noundef nonnull align 8 dereferenceable(689) %0, ptr noundef %1) unnamed_addr #2 align 2 {
  %3 = alloca ptr, align 8
  %4 = alloca ptr, align 8
  %5 = alloca ptr, align 8
  store ptr %0, ptr %3, align 8, !tbaa !12
  store ptr %1, ptr %4, align 8, !tbaa !210
  %6 = load ptr, ptr %3, align 8
  call void @llvm.lifetime.start.p0(i64 8, ptr %5) #14
  %7 = load ptr, ptr %4, align 8, !tbaa !210
  %8 = call noundef ptr @_ZN10btSoftBody6upcastEP17btCollisionObject(ptr noundef %7)
  store ptr %8, ptr %5, align 8, !tbaa !110
  %9 = load ptr, ptr %5, align 8, !tbaa !110
  %10 = icmp ne ptr %9, null
  br i1 %10, label %11, label %13

11:                                               ; preds = %2
  %12 = load ptr, ptr %5, align 8, !tbaa !110
  call void @_ZN24btSoftRigidDynamicsWorld14removeSoftBodyEP10btSoftBody(ptr noundef nonnull align 8 dereferenceable(689) %6, ptr noundef %12)
  br label %15

13:                                               ; preds = %2
  %14 = load ptr, ptr %4, align 8, !tbaa !210
  call void @_ZN23btDiscreteDynamicsWorld21removeCollisionObjectEP17btCollisionObject(ptr noundef nonnull align 8 dereferenceable(508) %6, ptr noundef %14)
  br label %15

15:                                               ; preds = %13, %11
  call void @llvm.lifetime.end.p0(i64 8, ptr %5) #14
  ret void
}